; Function Attrs: mustprogress nofree norecurse nosync nounwind willreturn memory(argmem: read) uwtable
define dso_local i64 @_ZNK4llvm3sys2fs17basic_file_status19getLastAccessedTimeEv(ptr nocapture noundef nonnull readonly align 8 dereferenceable(48) %0) local_unnamed_addr #6 align 2 {
  %2 = load i64, ptr %0, align 8
  %3 = getelementptr inbounds nuw i8, ptr %0, i64 16
  %4 = load i32, ptr %3, align 8
  %5 = mul nsw i64 %2, 1000000000
  %6 = zext i32 %4 to i64
  %7 = add nsw i64 %5, %6
  ret i64 %7
}